target datalayout = "e-m:e-p270:32:32-p271:32:32-p272:64:64-i64:64-i128:128-f80:128-n8:16:32:64-S128"
target triple = "x86_64-pc-linux-gnu"

%"class.mu::ParserCallback" = type <{ ptr, i32, i32, i32, i32, i32, i8, [3 x i8] }>

; Function Attrs: mustprogress nounwind uwtable
define void @_ZN2mu14ParserCallbackC2Ev(ptr noundef nonnull align 8 dereferenceable(32) %0) unnamed_addr #5 align 2 {
  %2 = alloca ptr, align 8
  store ptr %0, ptr %2, align 8, !tbaa !32
  %3 = load ptr, ptr %2, align 8
  %4 = getelementptr inbounds nuw %"class.mu::ParserCallback", ptr %3, i32 0, i32 0
  store ptr null, ptr %4, align 8, !tbaa !37
  %5 = getelementptr inbounds nuw %"class.mu::ParserCallback", ptr %3, i32 0, i32 1
  store i32 0, ptr %5, align 8, !tbaa !43
  %6 = getelementptr inbounds nuw %"class.mu::ParserCallback", ptr %3, i32 0, i32 2
  store i32 -1, ptr %6, align 4, !tbaa !44
  %7 = getelementptr inbounds nuw %"class.mu::ParserCallback", ptr %3, i32 0, i32 3
  store i32 2, ptr %7, align 8, !tbaa !45
  %8 = getelementptr inbounds nuw %"class.mu::ParserCallback", ptr %3, i32 0, i32 4
  store i32 34, ptr %8, align 4, !tbaa !46
  %9 = getelementptr inbounds nuw %"class.mu::ParserCallback", ptr %3, i32 0, i32 5
  store i32 2, ptr %9, align 8, !tbaa !47
  %10 = getelementptr inbounds nuw %"class.mu::ParserCallback", ptr %3, i32 0, i32 6
  store i8 0, ptr %10, align 4, !tbaa !50
  ret void
}