; Function Attrs: mustprogress nofree norecurse nosync nounwind willreturn memory(argmem: write) uwtable
define void @_ZN2mu14ParserCallbackC2Ev(ptr noundef nonnull writeonly align 8 captures(none) dereferenceable(32) initializes((0, 29)) %0) unnamed_addr #6 align 2 {
  store ptr null, ptr %0, align 8, !tbaa !4
  %2 = getelementptr inbounds nuw i8, ptr %0, i64 8
  store i32 0, ptr %2, align 8, !tbaa !14
  %3 = getelementptr inbounds nuw i8, ptr %0, i64 12
  store i32 -1, ptr %3, align 4, !tbaa !15
  %4 = getelementptr inbounds nuw i8, ptr %0, i64 16
  store i32 2, ptr %4, align 8, !tbaa !16
  %5 = getelementptr inbounds nuw i8, ptr %0, i64 20
  store i32 34, ptr %5, align 4, !tbaa !17
  %6 = getelementptr inbounds nuw i8, ptr %0, i64 24
  store i32 2, ptr %6, align 8, !tbaa !18
  %7 = getelementptr inbounds nuw i8, ptr %0, i64 28
  store i8 0, ptr %7, align 4, !tbaa !19
  ret void
}